target datalayout = "e-m:e-p270:32:32-p271:32:32-p272:64:64-i64:64-i128:128-f80:128-n8:16:32:64-S128"
target triple = "x86_64-pc-linux-gnu"

%struct._e_guid_t = type { i32, i16, i16, [8 x i8] }
%struct._GList = type { ptr, ptr, ptr }
%struct.dcom_marshaler_s = type { ptr, ptr, %struct._e_guid_t, ptr }

@uuid_null = internal constant %struct._e_guid_t zeroinitializer, align 4
@dcom_marshalers = internal global ptr null, align 8

; Function Attrs: nounwind uwtable
define hidden ptr @dcom_get_routine_by_uuid(ptr noundef %0) #0 {
  %2 = alloca ptr, align 8
  %3 = alloca ptr, align 8
  %4 = alloca ptr, align 8
  %5 = alloca ptr, align 8
  store ptr %0, ptr %3, align 8
  %6 = load ptr, ptr %3, align 8
  %7 = call i32 @memcmp(ptr noundef %6, ptr noundef @uuid_null, i64 noundef 16) #8
  %8 = icmp eq i32 %7, 0
  br i1 %8, label %9, label %10

9:                                                ; preds = %1
  store ptr null, ptr %2, align 8
  br label %40

10:                                               ; preds = %1
  %11 = load ptr, ptr @dcom_marshalers, align 8
  store ptr %11, ptr %5, align 8
  br label %12

12:                                               ; preds = %37, %10
  %13 = load ptr, ptr %5, align 8
  %14 = icmp ne ptr %13, null
  br i1 %14, label %15, label %39

15:                                               ; preds = %12
  %16 = load ptr, ptr %5, align 8
  %17 = getelementptr inbounds %struct._GList, ptr %16, i32 0, i32 0
  %18 = load ptr, ptr %17, align 8
  store ptr %18, ptr %4, align 8
  %19 = load ptr, ptr %4, align 8
  %20 = getelementptr inbounds %struct.dcom_marshaler_s, ptr %19, i32 0, i32 2
  %21 = load ptr, ptr %3, align 8
  %22 = call i32 @memcmp(ptr noundef %20, ptr noundef %21, i64 noundef 16) #8
  %23 = icmp eq i32 %22, 0
  br i1 %23, label %24, label %28

24:                                               ; preds = %15
  %25 = load ptr, ptr %4, align 8
  %26 = getelementptr inbounds %struct.dcom_marshaler_s, ptr %25, i32 0, i32 3
  %27 = load ptr, ptr %26, align 8
  store ptr %27, ptr %2, align 8
  br label %40

28:                                               ; preds = %15
  br label %29

29:                                               ; preds = %28
  %30 = load ptr, ptr %5, align 8
  %31 = icmp ne ptr %30, null
  br i1 %31, label %32, label %36

32:                                               ; preds = %29
  %33 = load ptr, ptr %5, align 8
  %34 = getelementptr inbounds %struct._GList, ptr %33, i32 0, i32 1
  %35 = load ptr, ptr %34, align 8
  br label %37

36:                                               ; preds = %29
  br label %37

37:                                               ; preds = %36, %32
  %38 = phi ptr [ %35, %32 ], [ null, %36 ]
  store ptr %38, ptr %5, align 8
  br label %12, !llvm.loop !17

39:                                               ; preds = %12
  store ptr null, ptr %2, align 8
  br label %40

40:                                               ; preds = %39, %24, %9
  %41 = load ptr, ptr %2, align 8
  ret ptr %41
}

; Function Attrs: nounwind uwtable
define hidden i32 @dcom_register_routine(ptr noundef %0, ptr noundef %1) #0 {
  %3 = alloca i32, align 4
  %4 = alloca ptr, align 8
  %5 = alloca ptr, align 8
  %6 = alloca ptr, align 8
  store ptr %0, ptr %4, align 8
  store ptr %1, ptr %5, align 8
  %7 = load ptr, ptr %5, align 8
  %8 = call ptr @dcom_get_routine_by_uuid(ptr noundef %7)
  %9 = icmp ne ptr %8, null
  br i1 %9, label %10, label %11

10:                                               ; preds = %2
  store i32 -1, ptr %3, align 4
  br label %31

11:                                               ; preds = %2
  %12 = call ptr @wmem_file_scope()
  %13 = call noalias ptr @wmem_alloc(ptr noundef %12, i64 noundef 40)
  store ptr %13, ptr %6, align 8
  %14 = load ptr, ptr %6, align 8
  %15 = icmp ne ptr %14, null
  br i1 %15, label %17, label %16

16:                                               ; preds = %11
  store i32 -1, ptr %3, align 4
  br label %31

17:                                               ; preds = %11
  %18 = load ptr, ptr %6, align 8
  %19 = getelementptr inbounds %struct.dcom_marshaler_s, ptr %18, i32 0, i32 0
  store ptr null, ptr %19, align 8
  %20 = load ptr, ptr %6, align 8
  %21 = getelementptr inbounds %struct.dcom_marshaler_s, ptr %20, i32 0, i32 1
  store ptr null, ptr %21, align 8
  %22 = load ptr, ptr %6, align 8
  %23 = getelementptr inbounds %struct.dcom_marshaler_s, ptr %22, i32 0, i32 2
  %24 = load ptr, ptr %5, align 8
  call void @llvm.memcpy.p0.p0.i64(ptr align 8 %23, ptr align 4 %24, i64 16, i1 false)
  %25 = load ptr, ptr %4, align 8
  %26 = load ptr, ptr %6, align 8
  %27 = getelementptr inbounds %struct.dcom_marshaler_s, ptr %26, i32 0, i32 3
  store ptr %25, ptr %27, align 8
  %28 = load ptr, ptr @dcom_marshalers, align 8
  %29 = load ptr, ptr %6, align 8
  %30 = call ptr @g_list_append(ptr noundef %28, ptr noundef %29)
  store ptr %30, ptr @dcom_marshalers, align 8
  store i32 0, ptr %3, align 4
  br label %31

31:                                               ; preds = %17, %16, %10
  %32 = load i32, ptr %3, align 4
  ret i32 %32
}