; Function Attrs: nounwind uwtable
define hidden range(i32 -1, 1) i32 @dcom_register_routine(ptr noundef %0, ptr noundef readonly captures(none) %1) local_unnamed_addr #1 {
  %bcmp.i = tail call i32 @bcmp(ptr noundef nonnull readonly dereferenceable(16) %1, ptr noundef nonnull dereferenceable(16) @uuid_null, i64 16)
  %3 = icmp eq i32 %bcmp.i, 0
  %.011.i = load ptr, ptr @dcom_marshalers, align 8
  %.not12.i = icmp eq ptr %.011.i, null
  %or.cond.i = select i1 %3, i1 true, i1 %.not12.i
  br i1 %or.cond.i, label %dcom_get_routine_by_uuid.exit.thread, label %.lr.ph.i

4:                                                ; preds = %.lr.ph.i
  %5 = getelementptr inbounds nuw i8, ptr %.013.i, i64 8
  %.0.i = load ptr, ptr %5, align 8
  %.not.i = icmp eq ptr %.0.i, null
  br i1 %.not.i, label %dcom_get_routine_by_uuid.exit.thread, label %.lr.ph.i, !llvm.loop !17

.lr.ph.i:                                         ; preds = %2, %4
  %.013.i = phi ptr [ %.0.i, %4 ], [ %.011.i, %2 ]
  %6 = load ptr, ptr %.013.i, align 8
  %7 = getelementptr inbounds nuw i8, ptr %6, i64 16
  %bcmp10.i = tail call i32 @bcmp(ptr noundef nonnull dereferenceable(16) %7, ptr noundef nonnull readonly dereferenceable(16) %1, i64 16)
  %8 = icmp eq i32 %bcmp10.i, 0
  br i1 %8, label %dcom_get_routine_by_uuid.exit, label %4

dcom_get_routine_by_uuid.exit:                    ; preds = %.lr.ph.i
  %9 = getelementptr inbounds nuw i8, ptr %6, i64 32
  %10 = load ptr, ptr %9, align 8
  %.not = icmp eq ptr %10, null
  br i1 %.not, label %dcom_get_routine_by_uuid.exit.thread, label %18

dcom_get_routine_by_uuid.exit.thread:             ; preds = %4, %2, %dcom_get_routine_by_uuid.exit
  %11 = tail call ptr @wmem_file_scope() #11
  %12 = tail call noalias ptr @wmem_alloc(ptr noundef %11, i64 noundef 40) #11
  %.not10 = icmp eq ptr %12, null
  br i1 %.not10, label %18, label %13

13:                                               ; preds = %dcom_get_routine_by_uuid.exit.thread
  %14 = getelementptr inbounds nuw i8, ptr %12, i64 16
  tail call void @llvm.memset.p0.i64(ptr noundef nonnull align 8 dereferenceable(16) %12, i8 0, i64 16, i1 false)
  tail call void @llvm.memcpy.p0.p0.i64(ptr noundef nonnull align 8 dereferenceable(16) %14, ptr noundef nonnull align 4 dereferenceable(16) %1, i64 16, i1 false)
  %15 = getelementptr inbounds nuw i8, ptr %12, i64 32
  store ptr %0, ptr %15, align 8
  %16 = load ptr, ptr @dcom_marshalers, align 8
  %17 = tail call ptr @g_list_append(ptr noundef %16, ptr noundef nonnull %12) #11
  store ptr %17, ptr @dcom_marshalers, align 8
  br label %18

18:                                               ; preds = %dcom_get_routine_by_uuid.exit.thread, %dcom_get_routine_by_uuid.exit, %13
  %.0 = phi i32 [ 0, %13 ], [ -1, %dcom_get_routine_by_uuid.exit ], [ -1, %dcom_get_routine_by_uuid.exit.thread ]
  ret i32 %.0
}